; Function Attrs: mustprogress nounwind uwtable
define noundef zeroext i1 @_ZNK8facebook5velox5cache7SsdFile20testingIsCowDisabledEv(ptr nocapture noundef nonnull readonly align 8 dereferenceable(381) %this) local_unnamed_addr #3 align 2 {
entry:
  %attr = alloca i32, align 4
  store i32 0, ptr %attr, align 4
  %fd_ = getelementptr inbounds i8, ptr %this, i64 240
  %0 = load i32, ptr %fd_, align 8
  %call = call i32 (i32, i64, ...) @ioctl(i32 noundef %0, i64 noundef 2148034049, ptr noundef nonnull %attr) #34
  %cmp.not = icmp eq i32 %call, 0
  br i1 %cmp.not, label %if.end, label %if.then

if.then:                                          ; preds = %entry
  call void @llvm.trap()
  unreachable

if.end:                                           ; preds = %entry
  %1 = load i32, ptr %attr, align 4
  %and = and i32 %1, 8388608
  %cmp2 = icmp ne i32 %and, 0
  ret i1 %cmp2
}